; Function Attrs: nounwind uwtable
define hidden void @av1_loop_restoration_filter_frame(ptr noundef %0, ptr noundef %1, i32 noundef %2, ptr noundef initializes((0, 8), (224, 240)) %3) local_unnamed_addr #2 {
  %5 = getelementptr i8, ptr %1, i64 25261
  %.val = load i8, ptr %5, align 1
  %.not.i = icmp eq i8 %.val, 0
  %6 = select i1 %.not.i, i32 3, i32 1
  tail call void @av1_loop_restoration_filter_frame_init(ptr noundef %3, ptr noundef %0, ptr noundef %1, i32 noundef %2, i32 noundef %6)
  %7 = getelementptr inbounds nuw i8, ptr %3, i64 8
  %8 = getelementptr inbounds nuw i8, ptr %1, i64 23608
  %9 = getelementptr inbounds nuw i8, ptr %1, i64 23800
  %10 = getelementptr inbounds nuw i8, ptr %1, i64 23808
  %wide.trip.count.i = zext nneg i32 %6 to i64
  br label %11

11:                                               ; preds = %22, %4
  %indvars.iv.i = phi i64 [ 0, %4 ], [ %indvars.iv.next.i, %22 ]
  %12 = getelementptr inbounds nuw [3 x %struct.RestorationInfo], ptr %8, i64 0, i64 %indvars.iv.i
  %13 = load i32, ptr %12, align 8
  %14 = icmp eq i32 %13, 0
  br i1 %14, label %22, label %15

15:                                               ; preds = %11
  %16 = load ptr, ptr %3, align 8
  %17 = getelementptr inbounds nuw %struct.FilterFrameCtxt, ptr %7, i64 %indvars.iv.i
  %18 = getelementptr inbounds nuw i8, ptr %17, i64 56
  %19 = load ptr, ptr %9, align 8
  %20 = load ptr, ptr %10, align 16
  %21 = trunc nuw nsw i64 %indvars.iv.i to i32
  tail call void @av1_foreach_rest_unit_in_plane(ptr noundef nonnull readonly %1, i32 noundef %21, ptr noundef %16, ptr noundef nonnull %17, ptr noundef nonnull %18, ptr noundef %19, ptr noundef %20)
  br label %22

22:                                               ; preds = %15, %11
  %indvars.iv.next.i = add nuw nsw i64 %indvars.iv.i, 1
  %exitcond.not.i = icmp eq i64 %indvars.iv.next.i, %wide.trip.count.i
  br i1 %exitcond.not.i, label %foreach_rest_unit_in_planes.exit, label %11, !llvm.loop !33

foreach_rest_unit_in_planes.exit:                 ; preds = %22
  %23 = getelementptr i8, ptr %3, i64 64
  %24 = getelementptr inbounds nuw i8, ptr %3, i64 232
  %25 = getelementptr inbounds nuw i8, ptr %3, i64 224
  br label %26

26:                                               ; preds = %36, %foreach_rest_unit_in_planes.exit
  %indvars.iv.i13 = phi i64 [ 0, %foreach_rest_unit_in_planes.exit ], [ %indvars.iv.next.i14, %36 ]
  %27 = getelementptr inbounds nuw [3 x %struct.RestorationInfo], ptr %8, i64 0, i64 %indvars.iv.i13
  %28 = load i32, ptr %27, align 8
  %29 = icmp eq i32 %28, 0
  br i1 %29, label %36, label %30

30:                                               ; preds = %26
  %.idx.i = mul nuw nsw i64 %indvars.iv.i13, 72
  %31 = getelementptr i8, ptr %23, i64 %.idx.i
  %.sroa.0.0.copyload.i = load i32, ptr %31, align 8
  %.sroa.2.0..sroa_idx.i = getelementptr inbounds nuw i8, ptr %31, i64 4
  %.sroa.2.0.copyload.i = load i32, ptr %.sroa.2.0..sroa_idx.i, align 4
  %.sroa.3.0..sroa_idx.i = getelementptr inbounds nuw i8, ptr %31, i64 8
  %.sroa.3.0.copyload.i = load i32, ptr %.sroa.3.0..sroa_idx.i, align 8
  %.sroa.4.0..sroa_idx.i = getelementptr inbounds nuw i8, ptr %31, i64 12
  %.sroa.4.0.copyload.i = load i32, ptr %.sroa.4.0..sroa_idx.i, align 4
  %32 = getelementptr inbounds nuw [3 x ptr], ptr @av1_loop_restoration_copy_planes.copy_funs, i64 0, i64 %indvars.iv.i13
  %33 = load ptr, ptr %32, align 8
  %34 = load ptr, ptr %24, align 8
  %35 = load ptr, ptr %25, align 8
  tail call void %33(ptr noundef %34, ptr noundef %35, i32 noundef %.sroa.0.0.copyload.i, i32 noundef %.sroa.3.0.copyload.i, i32 noundef %.sroa.2.0.copyload.i, i32 noundef %.sroa.4.0.copyload.i) #12
  br label %36

36:                                               ; preds = %30, %26
  %indvars.iv.next.i14 = add nuw nsw i64 %indvars.iv.i13, 1
  %exitcond.not.i15 = icmp eq i64 %indvars.iv.next.i14, %wide.trip.count.i
  br i1 %exitcond.not.i15, label %av1_loop_restoration_copy_planes.exit, label %26, !llvm.loop !32

av1_loop_restoration_copy_planes.exit:            ; preds = %36
  ret void
}